target datalayout = "e-m:e-p270:32:32-p271:32:32-p272:64:64-i64:64-i128:128-f80:128-n8:16:32:64-S128"
target triple = "x86_64-pc-linux-gnu"

@.str.55 = private unnamed_addr constant [28 x i8] c"QuakeWorld Network Protocol\00", align 1
@.str.56 = private unnamed_addr constant [11 x i8] c"QUAKEWORLD\00", align 1
@.str.57 = private unnamed_addr constant [11 x i8] c"quakeworld\00", align 1
@proto_quakeworld = internal global i32 0, align 4
@quakeworld_handle = internal global ptr null, align 8

; Function Attrs: null_pointer_is_valid sspstrong uwtable
define hidden void @proto_register_quakeworld() #0 {
  %1 = alloca ptr, align 8
  call void @llvm.lifetime.start.p0(i64 8, ptr %1) #6
  %2 = call i32 @proto_register_protocol(ptr noundef @.str.55, ptr noundef @.str.56, ptr noundef @.str.57)
  store i32 %2, ptr @proto_quakeworld, align 4
  %3 = load i32, ptr @proto_quakeworld, align 4
  call void @proto_register_field_array(i32 noundef %3, ptr noundef @proto_register_quakeworld.hf, i32 noundef 22)
  call void @proto_register_subtree_array(ptr noundef @proto_register_quakeworld.ett, i32 noundef 11)
  %4 = load i32, ptr @proto_quakeworld, align 4
  %5 = call ptr @register_dissector(ptr noundef @.str.57, ptr noundef @dissect_quakeworld, i32 noundef %4)
  store ptr %5, ptr @quakeworld_handle, align 8
  %6 = load i32, ptr @proto_quakeworld, align 4
  %7 = call ptr @prefs_register_protocol(i32 noundef %6, ptr noundef @apply_quakeworld_prefs)
  %8 = load i32, ptr @proto_quakeworld, align 4
  %9 = call ptr @expert_register_protocol(i32 noundef %8)
  store ptr %9, ptr %1, align 8
  %10 = load ptr, ptr %1, align 8
  call void @expert_register_field_array(ptr noundef %10, ptr noundef @proto_register_quakeworld.ei, i32 noundef 1)
  call void @llvm.lifetime.end.p0(i64 8, ptr %1) #6
  ret void
}