; Function Attrs: null_pointer_is_valid sspstrong uwtable
define hidden void @proto_register_quakeworld() local_unnamed_addr #0 {
  %1 = tail call i32 @proto_register_protocol(ptr noundef nonnull @.str.55, ptr noundef nonnull @.str.56, ptr noundef nonnull @.str.57)
  store i32 %1, ptr @proto_quakeworld, align 4
  tail call void @proto_register_field_array(i32 noundef %1, ptr noundef nonnull @proto_register_quakeworld.hf, i32 noundef 22)
  tail call void @proto_register_subtree_array(ptr noundef nonnull @proto_register_quakeworld.ett, i32 noundef 11)
  %2 = load i32, ptr @proto_quakeworld, align 4
  %3 = tail call ptr @register_dissector(ptr noundef nonnull @.str.57, ptr noundef nonnull @dissect_quakeworld, i32 noundef %2)
  store ptr %3, ptr @quakeworld_handle, align 8
  %4 = load i32, ptr @proto_quakeworld, align 4
  %5 = tail call ptr @prefs_register_protocol(i32 noundef %4, ptr noundef nonnull @apply_quakeworld_prefs)
  %6 = load i32, ptr @proto_quakeworld, align 4
  %7 = tail call ptr @expert_register_protocol(i32 noundef %6)
  tail call void @expert_register_field_array(ptr noundef %7, ptr noundef nonnull @proto_register_quakeworld.ei, i32 noundef 1)
  ret void
}